; Function Attrs: mustprogress uwtable
define void @_ZN8facebook5velox5cache10CacheShard11removeEntryEPNS1_19AsyncDataCacheEntryE(ptr noalias nocapture writeonly sret(%"class.std::unique_ptr") align 8 %agg.result, ptr noundef nonnull align 8 dereferenceable(280) %this, ptr noundef %entry1) local_unnamed_addr #3 align 2 personality ptr @__gxx_personality_v0 {
entry:
  %mutex_ = getelementptr inbounds i8, ptr %this, i64 8
  %call1.i.i.i = tail call noundef i32 @pthread_mutex_lock(ptr noundef nonnull %mutex_) #21
  %tobool.not.i.i = icmp eq i32 %call1.i.i.i, 0
  br i1 %tobool.not.i.i, label %_ZNSt10lock_guardISt5mutexEC2ERS0_.exit, label %if.then.i.i

if.then.i.i:                                      ; preds = %entry
  tail call void @_ZSt20__throw_system_errori(i32 noundef %call1.i.i.i) #41
  unreachable

_ZNSt10lock_guardISt5mutexEC2ERS0_.exit:          ; preds = %entry
  invoke void @_ZN8facebook5velox5cache10CacheShard17removeEntryLockedEPNS1_19AsyncDataCacheEntryE(ptr noundef nonnull align 8 dereferenceable(280) %this, ptr noundef %entry1)
          to label %invoke.cont unwind label %lpad

invoke.cont:                                      ; preds = %_ZNSt10lock_guardISt5mutexEC2ERS0_.exit
  tail call void @llvm.experimental.noalias.scope.decl(metadata !11)
  %promise_.i = getelementptr inbounds i8, ptr %entry1, i64 104
  %0 = load i64, ptr %promise_.i, align 8, !noalias !11
  store i64 %0, ptr %agg.result, align 8, !alias.scope !11
  store ptr null, ptr %promise_.i, align 8, !noalias !11
  %call1.i.i.i2 = tail call noundef i32 @pthread_mutex_unlock(ptr noundef nonnull %mutex_) #21
  ret void

lpad:                                             ; preds = %_ZNSt10lock_guardISt5mutexEC2ERS0_.exit
  %1 = landingpad { ptr, i32 }
          cleanup
  %call1.i.i.i3 = tail call noundef i32 @pthread_mutex_unlock(ptr noundef nonnull %mutex_) #21
  resume { ptr, i32 } %1
}